(dp1
S'steady_state_coverages'
p2
(ccopy_reg
_reconstructor
p3
(cmpmath.ctx_mp_python
mpf
p4
c__builtin__
object
p5
NtRp6
(I0
S'ffffffffff5cc8b99850346b08f92f8f968a74c5830c208f7ea6f1b64119f2cc92918215884fe78f48a9'
L-336L
L336L
tbg3
(g4
g5
NtRp7
(I0
S'b56512f6e0d6e3b2af2d6029bcfec58fea9bff0c4fcb173b099642ffeb38c9ff2bbb9d13b85025df1f55'
L-423L
L336L
tbtp8
s.