(dp1
S'steady_state_coverages'
p2
(ccopy_reg
_reconstructor
p3
(cmpmath.ctx_mp_python
mpf
p4
c__builtin__
object
p5
NtRp6
(I0
S'ff1ca8c47ba4563e6282286a46d3c0aadf8e4ff0b92881dbde81860c82afdb5ff2ef357199e271a5f257'
L-336L
L336L
tbg3
(g4
g5
NtRp7
(I0
S'c5575f468100998cc6036c30686f553592c934827d8c5e2c8d6894781144e938074f6149053d19754291'
L-354L
L336L
tbtp8
s.