(dp1
S'steady_state_coverages'
p2
(ccopy_reg
_reconstructor
p3
(cmpmath.ctx_mp_python
mpf
p4
c__builtin__
object
p5
NtRp6
(I0
S'927b34f8c814b564be2d1466ec2d1df69490d2d510a39c2d78124726482e257e4105517b6ece31742535'
L-342L
L336L
tbg3
(g4
g5
NtRp7
(I0
S'72ce581c136594acb2ec81862a5b260f2675d8b8ae61a30d8f539bd6e7d77bb1297923e8a61f94dac481'
L-336L
L335L
tbtp8
s.