(dp1
S'steady_state_coverages'
p2
(ccopy_reg
_reconstructor
p3
(cmpmath.ctx_mp_python
mpf
p4
c__builtin__
object
p5
NtRp6
(I0
S'3ffa4e468ed13951c9a96ac6af427eff5f89db6db862108567e07e825ff5b2dbfbda41aabfdacbafc309'
L-334L
L334L
tbg3
(g4
g5
NtRp7
(I0
S'fd2511bf49f8a7e0adb622102840fc242d0eb4b4076d5419df2a0ba313f76fa15e2dcb166b233fa0371'
L-357L
L332L
tbtp8
s.